target datalayout = "e-m:e-p270:32:32-p271:32:32-p272:64:64-i64:64-i128:128-f80:128-n8:16:32:64-S128"
target triple = "x86_64-unknown-linux-gnu"

%"class.cvc5::internal::prop::SatLiteral" = type { i64 }
%"class.cvc5::internal::prop::CadicalSolver" = type { %"class.cvc5::internal::prop::CDCLTSatSolver", %"class.cvc5::internal::EnvObj", %"class.std::unique_ptr", %"class.std::unique_ptr.2", ptr, ptr, %"class.std::unique_ptr.10", %"class.std::vector", i32, i8, i64, i64, %"struct.cvc5::internal::prop::CadicalSolver::Statistics" }
%"class.cvc5::internal::prop::CDCLTSatSolver" = type { %"class.cvc5::internal::prop::SatSolver" }
%"class.cvc5::internal::prop::SatSolver" = type { ptr }
%"class.cvc5::internal::EnvObj" = type { ptr, ptr }
%"class.std::unique_ptr" = type { %"struct.std::__uniq_ptr_data" }
%"struct.std::__uniq_ptr_data" = type { %"class.std::__uniq_ptr_impl" }
%"class.std::__uniq_ptr_impl" = type { %"class.std::tuple" }
%"class.std::tuple" = type { %"struct.std::_Tuple_impl" }
%"struct.std::_Tuple_impl" = type { %"struct.std::_Head_base.1" }
%"struct.std::_Head_base.1" = type { ptr }
%"class.std::unique_ptr.2" = type { %"struct.std::__uniq_ptr_data.3" }
%"struct.std::__uniq_ptr_data.3" = type { %"class.std::__uniq_ptr_impl.4" }
%"class.std::__uniq_ptr_impl.4" = type { %"class.std::tuple.5" }
%"class.std::tuple.5" = type { %"struct.std::_Tuple_impl.6" }
%"struct.std::_Tuple_impl.6" = type { %"struct.std::_Head_base.9" }
%"struct.std::_Head_base.9" = type { ptr }
%"class.std::unique_ptr.10" = type { %"struct.std::__uniq_ptr_data.11" }
%"struct.std::__uniq_ptr_data.11" = type { %"class.std::__uniq_ptr_impl.12" }
%"class.std::__uniq_ptr_impl.12" = type { %"class.std::tuple.13" }
%"class.std::tuple.13" = type { %"struct.std::_Tuple_impl.14" }
%"struct.std::_Tuple_impl.14" = type { %"struct.std::_Head_base.17" }
%"struct.std::_Head_base.17" = type { ptr }
%"class.std::vector" = type { %"struct.std::_Vector_base" }
%"struct.std::_Vector_base" = type { %"struct.std::_Vector_base<cvc5::internal::prop::SatLiteral, std::allocator<cvc5::internal::prop::SatLiteral>>::_Vector_impl" }
%"struct.std::_Vector_base<cvc5::internal::prop::SatLiteral, std::allocator<cvc5::internal::prop::SatLiteral>>::_Vector_impl" = type { %"struct.std::_Vector_base<cvc5::internal::prop::SatLiteral, std::allocator<cvc5::internal::prop::SatLiteral>>::_Vector_impl_data" }
%"struct.std::_Vector_base<cvc5::internal::prop::SatLiteral, std::allocator<cvc5::internal::prop::SatLiteral>>::_Vector_impl_data" = type { ptr, ptr, ptr }
%"struct.cvc5::internal::prop::CadicalSolver::Statistics" = type { %"class.cvc5::internal::IntStat", %"class.cvc5::internal::IntStat", %"class.cvc5::internal::IntStat", %"class.cvc5::internal::TimerStat" }
%"class.cvc5::internal::IntStat" = type { %"class.cvc5::internal::ValueStat" }
%"class.cvc5::internal::ValueStat" = type { ptr }
%"class.cvc5::internal::TimerStat" = type { ptr }

; Function Attrs: mustprogress nounwind uwtable
define linkonce_odr hidden noundef nonnull align 8 dereferenceable(8) ptr @_ZNSt10_Head_baseILm0EPN7CaDiCaL6SolverELb0EE7_M_headERKS3_(ptr noundef nonnull align 8 dereferenceable(8) %__b) #4 comdat align 2 {
entry:
  %__b.addr = alloca ptr, align 8
  store ptr %__b, ptr %__b.addr, align 8
  %0 = load ptr, ptr %__b.addr, align 8
  %_M_head_impl = getelementptr inbounds %"struct.std::_Head_base.1", ptr %0, i32 0, i32 0
  ret ptr %_M_head_impl
}

; Function Attrs: mustprogress nounwind uwtable
define linkonce_odr hidden noundef nonnull align 8 dereferenceable(8) ptr @_ZNSt11_Tuple_implILm0EJPN7CaDiCaL6SolverESt14default_deleteIS1_EEE7_M_headERKS5_(ptr noundef nonnull align 8 dereferenceable(8) %__t) #4 comdat align 2 {
entry:
  %__t.addr = alloca ptr, align 8
  store ptr %__t, ptr %__t.addr, align 8
  %0 = load ptr, ptr %__t.addr, align 8
  %call = call noundef nonnull align 8 dereferenceable(8) ptr @_ZNSt10_Head_baseILm0EPN7CaDiCaL6SolverELb0EE7_M_headERKS3_(ptr noundef nonnull align 8 dereferenceable(8) %0) #3
  ret ptr %call
}

; Function Attrs: mustprogress nounwind uwtable
define linkonce_odr hidden noundef nonnull align 8 dereferenceable(8) ptr @_ZSt12__get_helperILm0EPN7CaDiCaL6SolverEJSt14default_deleteIS1_EEERKT0_RKSt11_Tuple_implIXT_EJS5_DpT1_EE(ptr noundef nonnull align 8 dereferenceable(8) %__t) #4 comdat {
entry:
  %__t.addr = alloca ptr, align 8
  store ptr %__t, ptr %__t.addr, align 8
  %0 = load ptr, ptr %__t.addr, align 8
  %call = call noundef nonnull align 8 dereferenceable(8) ptr @_ZNSt11_Tuple_implILm0EJPN7CaDiCaL6SolverESt14default_deleteIS1_EEE7_M_headERKS5_(ptr noundef nonnull align 8 dereferenceable(8) %0) #3
  ret ptr %call
}

; Function Attrs: mustprogress nounwind uwtable
define linkonce_odr hidden noundef nonnull align 8 dereferenceable(8) ptr @_ZSt3getILm0EJPN7CaDiCaL6SolverESt14default_deleteIS1_EEERKNSt13tuple_elementIXT_ESt5tupleIJDpT0_EEE4typeERKS9_(ptr noundef nonnull align 8 dereferenceable(8) %__t) #4 comdat {
entry:
  %__t.addr = alloca ptr, align 8
  store ptr %__t, ptr %__t.addr, align 8
  %0 = load ptr, ptr %__t.addr, align 8
  %call = call noundef nonnull align 8 dereferenceable(8) ptr @_ZSt12__get_helperILm0EPN7CaDiCaL6SolverEJSt14default_deleteIS1_EEERKT0_RKSt11_Tuple_implIXT_EJS5_DpT1_EE(ptr noundef nonnull align 8 dereferenceable(8) %0) #3
  ret ptr %call
}

; Function Attrs: mustprogress nounwind uwtable
define linkonce_odr hidden noundef ptr @_ZNKSt15__uniq_ptr_implIN7CaDiCaL6SolverESt14default_deleteIS1_EE6_M_ptrEv(ptr noundef nonnull align 8 dereferenceable(8) %this) #4 comdat align 2 {
entry:
  %this.addr = alloca ptr, align 8
  store ptr %this, ptr %this.addr, align 8
  %this1 = load ptr, ptr %this.addr, align 8
  %_M_t = getelementptr inbounds %"class.std::__uniq_ptr_impl", ptr %this1, i32 0, i32 0
  %call = call noundef nonnull align 8 dereferenceable(8) ptr @_ZSt3getILm0EJPN7CaDiCaL6SolverESt14default_deleteIS1_EEERKNSt13tuple_elementIXT_ESt5tupleIJDpT0_EEE4typeERKS9_(ptr noundef nonnull align 8 dereferenceable(8) %_M_t) #3
  %0 = load ptr, ptr %call, align 8
  ret ptr %0
}

; Function Attrs: mustprogress nounwind uwtable
define linkonce_odr hidden noundef i64 @_ZNK4cvc58internal4prop10SatLiteral14getSatVariableEv(ptr noundef nonnull align 8 dereferenceable(8) %this) #4 comdat align 2 {
entry:
  %this.addr = alloca ptr, align 8
  store ptr %this, ptr %this.addr, align 8
  %this1 = load ptr, ptr %this.addr, align 8
  %d_value = getelementptr inbounds %"class.cvc5::internal::prop::SatLiteral", ptr %this1, i32 0, i32 0
  %0 = load i64, ptr %d_value, align 8
  %shr = lshr i64 %0, 1
  ret i64 %shr
}

; Function Attrs: mustprogress nounwind uwtable
define linkonce_odr hidden noundef zeroext i1 @_ZNK4cvc58internal4prop10SatLiteral9isNegatedEv(ptr noundef nonnull align 8 dereferenceable(8) %this) #4 comdat align 2 {
entry:
  %this.addr = alloca ptr, align 8
  store ptr %this, ptr %this.addr, align 8
  %this1 = load ptr, ptr %this.addr, align 8
  %d_value = getelementptr inbounds %"class.cvc5::internal::prop::SatLiteral", ptr %this1, i32 0, i32 0
  %0 = load i64, ptr %d_value, align 8
  %and = and i64 %0, 1
  %tobool = icmp ne i64 %and, 0
  ret i1 %tobool
}

; Function Attrs: mustprogress nounwind uwtable
define linkonce_odr hidden noundef ptr @_ZNKSt10unique_ptrIN7CaDiCaL6SolverESt14default_deleteIS1_EE3getEv(ptr noundef nonnull align 8 dereferenceable(8) %this) #4 comdat align 2 {
entry:
  %this.addr = alloca ptr, align 8
  store ptr %this, ptr %this.addr, align 8
  %this1 = load ptr, ptr %this.addr, align 8
  %_M_t = getelementptr inbounds %"class.std::unique_ptr", ptr %this1, i32 0, i32 0
  %call = call noundef ptr @_ZNKSt15__uniq_ptr_implIN7CaDiCaL6SolverESt14default_deleteIS1_EE6_M_ptrEv(ptr noundef nonnull align 8 dereferenceable(8) %_M_t) #3
  ret ptr %call
}

; Function Attrs: mustprogress nounwind uwtable
define internal noundef i32 @_ZN4cvc58internal4prop12_GLOBAL__N_113toSatValueLitEi(i32 noundef %value) #4 {
entry:
  %retval = alloca i32, align 4
  %value.addr = alloca i32, align 4
  store i32 %value, ptr %value.addr, align 4
  %0 = load i32, ptr %value.addr, align 4
  %cmp = icmp sgt i32 %0, 0
  br i1 %cmp, label %if.then, label %if.end

if.then:                                          ; preds = %entry
  store i32 1, ptr %retval, align 4
  br label %return

if.end:                                           ; preds = %entry
  store i32 2, ptr %retval, align 4
  br label %return

return:                                           ; preds = %if.end, %if.then
  %1 = load i32, ptr %retval, align 4
  ret i32 %1
}

; Function Attrs: mustprogress nounwind uwtable
define internal noundef i32 @_ZN4cvc58internal4prop12_GLOBAL__N_112toCadicalLitENS1_10SatLiteralE(i64 %lit.coerce) #4 {
entry:
  %lit = alloca %"class.cvc5::internal::prop::SatLiteral", align 8
  %coerce.dive = getelementptr inbounds %"class.cvc5::internal::prop::SatLiteral", ptr %lit, i32 0, i32 0
  store i64 %lit.coerce, ptr %coerce.dive, align 8
  %call = call noundef zeroext i1 @_ZNK4cvc58internal4prop10SatLiteral9isNegatedEv(ptr noundef nonnull align 8 dereferenceable(8) %lit)
  br i1 %call, label %cond.true, label %cond.false

cond.true:                                        ; preds = %entry
  %call1 = call noundef i64 @_ZNK4cvc58internal4prop10SatLiteral14getSatVariableEv(ptr noundef nonnull align 8 dereferenceable(8) %lit)
  %sub = sub i64 0, %call1
  br label %cond.end

cond.false:                                       ; preds = %entry
  %call2 = call noundef i64 @_ZNK4cvc58internal4prop10SatLiteral14getSatVariableEv(ptr noundef nonnull align 8 dereferenceable(8) %lit)
  br label %cond.end

cond.end:                                         ; preds = %cond.false, %cond.true
  %cond = phi i64 [ %sub, %cond.true ], [ %call2, %cond.false ]
  %conv = trunc i64 %cond to i32
  ret i32 %conv
}

; Function Attrs: mustprogress nounwind uwtable
define linkonce_odr hidden noundef ptr @_ZNKSt10unique_ptrIN7CaDiCaL6SolverESt14default_deleteIS1_EEptEv(ptr noundef nonnull align 8 dereferenceable(8) %this) #4 comdat align 2 {
entry:
  %this.addr = alloca ptr, align 8
  store ptr %this, ptr %this.addr, align 8
  %this1 = load ptr, ptr %this.addr, align 8
  %call = call noundef ptr @_ZNKSt10unique_ptrIN7CaDiCaL6SolverESt14default_deleteIS1_EE3getEv(ptr noundef nonnull align 8 dereferenceable(8) %this1) #3
  ret ptr %call
}

; Function Attrs: mustprogress uwtable
define hidden noundef i32 @_ZN4cvc58internal4prop13CadicalSolver10modelValueENS1_10SatLiteralE(ptr noundef nonnull align 8 dereferenceable(144) %this, i64 %l.coerce) unnamed_addr #5 align 2 {
entry:
  %l = alloca %"class.cvc5::internal::prop::SatLiteral", align 8
  %this.addr = alloca ptr, align 8
  %agg.tmp = alloca %"class.cvc5::internal::prop::SatLiteral", align 8
  %coerce.dive = getelementptr inbounds %"class.cvc5::internal::prop::SatLiteral", ptr %l, i32 0, i32 0
  store i64 %l.coerce, ptr %coerce.dive, align 8
  store ptr %this, ptr %this.addr, align 8
  %this1 = load ptr, ptr %this.addr, align 8
  %d_solver = getelementptr inbounds %"class.cvc5::internal::prop::CadicalSolver", ptr %this1, i32 0, i32 2
  %call = call noundef ptr @_ZNKSt10unique_ptrIN7CaDiCaL6SolverESt14default_deleteIS1_EEptEv(ptr noundef nonnull align 8 dereferenceable(8) %d_solver) #3
  call void @llvm.memcpy.p0.p0.i64(ptr align 8 %agg.tmp, ptr align 8 %l, i64 8, i1 false)
  %coerce.dive2 = getelementptr inbounds %"class.cvc5::internal::prop::SatLiteral", ptr %agg.tmp, i32 0, i32 0
  %0 = load i64, ptr %coerce.dive2, align 8
  %call3 = call noundef i32 @_ZN4cvc58internal4prop12_GLOBAL__N_112toCadicalLitENS1_10SatLiteralE(i64 %0)
  %call4 = call noundef i32 @_ZN7CaDiCaL6Solver3valEi(ptr noundef nonnull align 8 dereferenceable(40) %call, i32 noundef %call3)
  %call5 = call noundef i32 @_ZN4cvc58internal4prop12_GLOBAL__N_113toSatValueLitEi(i32 noundef %call4)
  ret i32 %call5
}