; Function Attrs: mustprogress uwtable
define hidden noundef i32 @_ZN4cvc58internal4prop13CadicalSolver10modelValueENS1_10SatLiteralE(ptr nocapture noundef nonnull readonly align 8 dereferenceable(144) %this, i64 %l.coerce) unnamed_addr #3 align 2 {
entry:
  %d_solver = getelementptr inbounds i8, ptr %this, i64 24
  %0 = load ptr, ptr %d_solver, align 8
  %and.i.i = and i64 %l.coerce, 1
  %tobool.i.not.i = icmp eq i64 %and.i.i, 0
  %shr.i.i = lshr i64 %l.coerce, 1
  %sub.i = sub nsw i64 0, %shr.i.i
  %cond.i = select i1 %tobool.i.not.i, i64 %shr.i.i, i64 %sub.i
  %conv.i = trunc i64 %cond.i to i32
  %call4 = tail call noundef i32 @_ZN7CaDiCaL6Solver3valEi(ptr noundef nonnull align 8 dereferenceable(40) %0, i32 noundef %conv.i)
  %cmp.inv.i = icmp slt i32 %call4, 1
  %..i = select i1 %cmp.inv.i, i32 2, i32 1
  ret i32 %..i
}